
RTC_DS1307_Read.elf:     file format elf32-avr

Sections:
Idx Name          Size      VMA       LMA       File off  Algn
  0 .text         00000a7e  00000000  00000000  00000094  2**1
                  CONTENTS, ALLOC, LOAD, READONLY, CODE
  1 .data         00000050  00800060  00000a7e  00000b12  2**0
                  CONTENTS, ALLOC, LOAD, DATA
  2 .bss          0000000e  008000b0  008000b0  00000b62  2**0
                  ALLOC
  3 .comment      0000005c  00000000  00000000  00000b62  2**0
                  CONTENTS, READONLY
  4 .note.gnu.avr.deviceinfo 0000003c  00000000  00000000  00000bc0  2**2
                  CONTENTS, READONLY
  5 .debug_aranges 000000d8  00000000  00000000  00000bfc  2**0
                  CONTENTS, READONLY, DEBUGGING
  6 .debug_info   0000106e  00000000  00000000  00000cd4  2**0
                  CONTENTS, READONLY, DEBUGGING
  7 .debug_abbrev 00000916  00000000  00000000  00001d42  2**0
                  CONTENTS, READONLY, DEBUGGING
  8 .debug_line   00000883  00000000  00000000  00002658  2**0
                  CONTENTS, READONLY, DEBUGGING
  9 .debug_frame  000001a8  00000000  00000000  00002edc  2**2
                  CONTENTS, READONLY, DEBUGGING
 10 .debug_str    0000050f  00000000  00000000  00003084  2**0
                  CONTENTS, READONLY, DEBUGGING
 11 .debug_loc    00000542  00000000  00000000  00003593  2**0
                  CONTENTS, READONLY, DEBUGGING
 12 .debug_ranges 000000a8  00000000  00000000  00003ad5  2**0
                  CONTENTS, READONLY, DEBUGGING

Disassembly of section .text:

00000000 <__vectors>:
   0:	0c 94 2a 00 	jmp	0x54	; 0x54 <__ctors_end>
   4:	0c 94 47 00 	jmp	0x8e	; 0x8e <__bad_interrupt>
   8:	0c 94 47 00 	jmp	0x8e	; 0x8e <__bad_interrupt>
   c:	0c 94 47 00 	jmp	0x8e	; 0x8e <__bad_interrupt>
  10:	0c 94 47 00 	jmp	0x8e	; 0x8e <__bad_interrupt>
  14:	0c 94 47 00 	jmp	0x8e	; 0x8e <__bad_interrupt>
  18:	0c 94 47 00 	jmp	0x8e	; 0x8e <__bad_interrupt>
  1c:	0c 94 47 00 	jmp	0x8e	; 0x8e <__bad_interrupt>
  20:	0c 94 47 00 	jmp	0x8e	; 0x8e <__bad_interrupt>
  24:	0c 94 47 00 	jmp	0x8e	; 0x8e <__bad_interrupt>
  28:	0c 94 47 00 	jmp	0x8e	; 0x8e <__bad_interrupt>
  2c:	0c 94 47 00 	jmp	0x8e	; 0x8e <__bad_interrupt>
  30:	0c 94 47 00 	jmp	0x8e	; 0x8e <__bad_interrupt>
  34:	0c 94 47 00 	jmp	0x8e	; 0x8e <__bad_interrupt>
  38:	0c 94 47 00 	jmp	0x8e	; 0x8e <__bad_interrupt>
  3c:	0c 94 47 00 	jmp	0x8e	; 0x8e <__bad_interrupt>
  40:	0c 94 47 00 	jmp	0x8e	; 0x8e <__bad_interrupt>
  44:	0c 94 47 00 	jmp	0x8e	; 0x8e <__bad_interrupt>
  48:	0c 94 47 00 	jmp	0x8e	; 0x8e <__bad_interrupt>
  4c:	0c 94 47 00 	jmp	0x8e	; 0x8e <__bad_interrupt>
  50:	0c 94 47 00 	jmp	0x8e	; 0x8e <__bad_interrupt>

00000054 <__ctors_end>:
  54:	11 24       	eor	r1, r1
  56:	1f be       	out	0x3f, r1	; 63
  58:	cf e5       	ldi	r28, 0x5F	; 95
  5a:	d4 e0       	ldi	r29, 0x04	; 4
  5c:	de bf       	out	0x3e, r29	; 62
  5e:	cd bf       	out	0x3d, r28	; 61

00000060 <__do_copy_data>:
  60:	10 e0       	ldi	r17, 0x00	; 0
  62:	a0 e6       	ldi	r26, 0x60	; 96
  64:	b0 e0       	ldi	r27, 0x00	; 0
  66:	ee e7       	ldi	r30, 0x7E	; 126
  68:	fa e0       	ldi	r31, 0x0A	; 10
  6a:	02 c0       	rjmp	.+4      	; 0x70 <__do_copy_data+0x10>
  6c:	05 90       	lpm	r0, Z+
  6e:	0d 92       	st	X+, r0
  70:	a0 3b       	cpi	r26, 0xB0	; 176
  72:	b1 07       	cpc	r27, r17
  74:	d9 f7       	brne	.-10     	; 0x6c <__do_copy_data+0xc>

00000076 <__do_clear_bss>:
  76:	20 e0       	ldi	r18, 0x00	; 0
  78:	a0 eb       	ldi	r26, 0xB0	; 176
  7a:	b0 e0       	ldi	r27, 0x00	; 0
  7c:	01 c0       	rjmp	.+2      	; 0x80 <.do_clear_bss_start>

0000007e <.do_clear_bss_loop>:
  7e:	1d 92       	st	X+, r1

00000080 <.do_clear_bss_start>:
  80:	ae 3b       	cpi	r26, 0xBE	; 190
  82:	b2 07       	cpc	r27, r18
  84:	e1 f7       	brne	.-8      	; 0x7e <.do_clear_bss_loop>
  86:	0e 94 99 01 	call	0x332	; 0x332 <main>
  8a:	0c 94 3d 05 	jmp	0xa7a	; 0xa7a <_exit>

0000008e <__bad_interrupt>:
  8e:	0c 94 00 00 	jmp	0	; 0x0 <__vectors>

00000092 <I2C_Init>:
			I2C_Stop();										/* If not then generate stop condition */
			continue;										/* continue with start loop again */
		}
		break;												/* If yes then break loop */
	}
}
  92:	11 b8       	out	0x01, r1	; 1
  94:	80 e2       	ldi	r24, 0x20	; 32
  96:	80 b9       	out	0x00, r24	; 0
  98:	08 95       	ret

0000009a <I2C_Start>:
  9a:	94 ea       	ldi	r25, 0xA4	; 164
  9c:	96 bf       	out	0x36, r25	; 54
  9e:	06 b6       	in	r0, 0x36	; 54
  a0:	07 fe       	sbrs	r0, 7
  a2:	fd cf       	rjmp	.-6      	; 0x9e <I2C_Start+0x4>
  a4:	91 b1       	in	r25, 0x01	; 1
  a6:	98 7f       	andi	r25, 0xF8	; 248
  a8:	98 30       	cpi	r25, 0x08	; 8
  aa:	71 f4       	brne	.+28     	; 0xc8 <I2C_Start+0x2e>
  ac:	83 b9       	out	0x03, r24	; 3
  ae:	84 e8       	ldi	r24, 0x84	; 132
  b0:	86 bf       	out	0x36, r24	; 54
  b2:	06 b6       	in	r0, 0x36	; 54
  b4:	07 fe       	sbrs	r0, 7
  b6:	fd cf       	rjmp	.-6      	; 0xb2 <I2C_Start+0x18>
  b8:	81 b1       	in	r24, 0x01	; 1
  ba:	88 7f       	andi	r24, 0xF8	; 248
  bc:	88 31       	cpi	r24, 0x18	; 24
  be:	31 f0       	breq	.+12     	; 0xcc <I2C_Start+0x32>
  c0:	80 32       	cpi	r24, 0x20	; 32
  c2:	31 f0       	breq	.+12     	; 0xd0 <I2C_Start+0x36>
  c4:	83 e0       	ldi	r24, 0x03	; 3
  c6:	08 95       	ret
  c8:	80 e0       	ldi	r24, 0x00	; 0
  ca:	08 95       	ret
  cc:	81 e0       	ldi	r24, 0x01	; 1
  ce:	08 95       	ret
  d0:	82 e0       	ldi	r24, 0x02	; 2
  d2:	08 95       	ret

000000d4 <I2C_Repeated_Start>:
  d4:	94 ea       	ldi	r25, 0xA4	; 164
  d6:	96 bf       	out	0x36, r25	; 54
  d8:	06 b6       	in	r0, 0x36	; 54
  da:	07 fe       	sbrs	r0, 7
  dc:	fd cf       	rjmp	.-6      	; 0xd8 <I2C_Repeated_Start+0x4>
  de:	91 b1       	in	r25, 0x01	; 1
  e0:	98 7f       	andi	r25, 0xF8	; 248
  e2:	90 31       	cpi	r25, 0x10	; 16
  e4:	71 f4       	brne	.+28     	; 0x102 <I2C_Repeated_Start+0x2e>
  e6:	83 b9       	out	0x03, r24	; 3
  e8:	84 e8       	ldi	r24, 0x84	; 132
  ea:	86 bf       	out	0x36, r24	; 54
  ec:	06 b6       	in	r0, 0x36	; 54
  ee:	07 fe       	sbrs	r0, 7
  f0:	fd cf       	rjmp	.-6      	; 0xec <I2C_Repeated_Start+0x18>
  f2:	81 b1       	in	r24, 0x01	; 1
  f4:	88 7f       	andi	r24, 0xF8	; 248
  f6:	80 34       	cpi	r24, 0x40	; 64
  f8:	31 f0       	breq	.+12     	; 0x106 <I2C_Repeated_Start+0x32>
  fa:	80 32       	cpi	r24, 0x20	; 32
  fc:	31 f0       	breq	.+12     	; 0x10a <I2C_Repeated_Start+0x36>
  fe:	83 e0       	ldi	r24, 0x03	; 3
 100:	08 95       	ret
 102:	80 e0       	ldi	r24, 0x00	; 0
 104:	08 95       	ret
 106:	81 e0       	ldi	r24, 0x01	; 1
 108:	08 95       	ret
 10a:	82 e0       	ldi	r24, 0x02	; 2
 10c:	08 95       	ret

0000010e <I2C_Stop>:
 10e:	84 e9       	ldi	r24, 0x94	; 148
 110:	86 bf       	out	0x36, r24	; 54
 112:	06 b6       	in	r0, 0x36	; 54
 114:	04 fc       	sbrc	r0, 4
 116:	fd cf       	rjmp	.-6      	; 0x112 <I2C_Stop+0x4>
 118:	08 95       	ret

0000011a <I2C_Write>:

uint8_t I2C_Write(char data)								/* I2C write function */
{
	uint8_t status;											/* Declare variable */
	TWDR = data;											/* Copy data in TWI data register */
 11a:	83 b9       	out	0x03, r24	; 3
	TWCR = (1<<TWEN)|(1<<TWINT);							/* Enable TWI and clear interrupt flag */
 11c:	84 e8       	ldi	r24, 0x84	; 132
 11e:	86 bf       	out	0x36, r24	; 54
	while (!(TWCR & (1<<TWINT)));							/* Wait until TWI finish its current job (Write operation) */
 120:	06 b6       	in	r0, 0x36	; 54
 122:	07 fe       	sbrs	r0, 7
 124:	fd cf       	rjmp	.-6      	; 0x120 <I2C_Write+0x6>
	status = TWSR & 0xF8;									/* Read TWI status register with masking lower three bits */
 126:	81 b1       	in	r24, 0x01	; 1
 128:	88 7f       	andi	r24, 0xF8	; 248
	if (status == 0x28)										/* Check weather data transmitted & ack received or not? */
 12a:	88 32       	cpi	r24, 0x28	; 40
 12c:	21 f0       	breq	.+8      	; 0x136 <I2C_Write+0x1c>
	return 0;												/* If yes then return 0 to indicate ack received */
	if (status == 0x30)										/* Check weather data transmitted & nack received or not? */
 12e:	80 33       	cpi	r24, 0x30	; 48
 130:	21 f0       	breq	.+8      	; 0x13a <I2C_Write+0x20>
	return 1;												/* If yes then return 1 to indicate nack received */
	else
	return 2;												/* Else return 2 to indicate data transmission failed */
 132:	82 e0       	ldi	r24, 0x02	; 2
 134:	08 95       	ret
	TWDR = data;											/* Copy data in TWI data register */
	TWCR = (1<<TWEN)|(1<<TWINT);							/* Enable TWI and clear interrupt flag */
	while (!(TWCR & (1<<TWINT)));							/* Wait until TWI finish its current job (Write operation) */
	status = TWSR & 0xF8;									/* Read TWI status register with masking lower three bits */
	if (status == 0x28)										/* Check weather data transmitted & ack received or not? */
	return 0;												/* If yes then return 0 to indicate ack received */
 136:	80 e0       	ldi	r24, 0x00	; 0
 138:	08 95       	ret
	if (status == 0x30)										/* Check weather data transmitted & nack received or not? */
	return 1;												/* If yes then return 1 to indicate nack received */
 13a:	81 e0       	ldi	r24, 0x01	; 1
	else
	return 2;												/* Else return 2 to indicate data transmission failed */
}
 13c:	08 95       	ret

0000013e <I2C_Read_Ack>:

int I2C_Read_Ack()											/* I2C read ack function */
{
	TWCR=(1<<TWEN)|(1<<TWINT)|(1<<TWEA);					/* Enable TWI, generation of ack and clear interrupt flag */
 13e:	84 ec       	ldi	r24, 0xC4	; 196
 140:	86 bf       	out	0x36, r24	; 54
	while (!(TWCR & (1<<TWINT)));							/* Wait until TWI finish its current job (read operation) */
 142:	06 b6       	in	r0, 0x36	; 54
 144:	07 fe       	sbrs	r0, 7
 146:	fd cf       	rjmp	.-6      	; 0x142 <I2C_Read_Ack+0x4>
	return TWDR;											/* Return received data */
 148:	83 b1       	in	r24, 0x03	; 3
}	
 14a:	90 e0       	ldi	r25, 0x00	; 0
 14c:	08 95       	ret

0000014e <I2C_Read_Nack>:

int I2C_Read_Nack()										/* I2C read nack function */
{
	TWCR=(1<<TWEN)|(1<<TWINT);								/* Enable TWI and clear interrupt flag */
 14e:	84 e8       	ldi	r24, 0x84	; 132
 150:	86 bf       	out	0x36, r24	; 54
	while (!(TWCR & (1<<TWINT)));							/* Wait until TWI finish its current job (read operation) */
 152:	06 b6       	in	r0, 0x36	; 54
 154:	07 fe       	sbrs	r0, 7
 156:	fd cf       	rjmp	.-6      	; 0x152 <I2C_Read_Nack+0x4>
	return TWDR;											/* Return received data */
 158:	83 b1       	in	r24, 0x03	; 3
}	
 15a:	90 e0       	ldi	r25, 0x00	; 0
 15c:	08 95       	ret

0000015e <lcdcommand>:

#include "LCD16x2_4bit.h"

void lcdcommand(unsigned char cmnd)
{
	LCD_DPRT = (LCD_DPRT & 0x0f)|(cmnd & 0xf0);		/* SEND COMMAND TO DATA PORT */
 15e:	98 b3       	in	r25, 0x18	; 24
 160:	28 2f       	mov	r18, r24
 162:	20 7f       	andi	r18, 0xF0	; 240
 164:	9f 70       	andi	r25, 0x0F	; 15
 166:	92 2b       	or	r25, r18
 168:	98 bb       	out	0x18, r25	; 24
	LCD_DPRT &= ~ (1<<LCD_RS);						/* RS = 0 FOR COMMAND */
 16a:	c0 98       	cbi	0x18, 0	; 24
	LCD_DPRT |= (1<<LCD_EN);						/* EN = 1 FOR H TO L PULSE */
 16c:	c1 9a       	sbi	0x18, 1	; 24
	#else
		//round up by default
		__ticks_dc = (uint32_t)(ceil(fabs(__tmp)));
	#endif

	__builtin_avr_delay_cycles(__ticks_dc);
 16e:	32 e0       	ldi	r19, 0x02	; 2
 170:	3a 95       	dec	r19
 172:	f1 f7       	brne	.-4      	; 0x170 <lcdcommand+0x12>
 174:	00 c0       	rjmp	.+0      	; 0x176 <lcdcommand+0x18>
	_delay_us(1);									/* WAIT FOR MAKE ENABLE WIDE */
	LCD_DPRT &= ~(1<<LCD_EN);						/* EN = 0 FOR H TO L PULSE */
 176:	c1 98       	cbi	0x18, 1	; 24
 178:	e7 ec       	ldi	r30, 0xC7	; 199
 17a:	f0 e0       	ldi	r31, 0x00	; 0
 17c:	31 97       	sbiw	r30, 0x01	; 1
 17e:	f1 f7       	brne	.-4      	; 0x17c <lcdcommand+0x1e>
 180:	00 c0       	rjmp	.+0      	; 0x182 <lcdcommand+0x24>
 182:	00 00       	nop
	_delay_us(100);									/* WAIT FOR MAKE ENABLE WIDE */
	
	LCD_DPRT = (LCD_DPRT & 0x0f)|(cmnd << 4);		/* SEND COMMAND TO DATA PORT */
 184:	28 b3       	in	r18, 0x18	; 24
 186:	f0 e1       	ldi	r31, 0x10	; 16
 188:	8f 9f       	mul	r24, r31
 18a:	c0 01       	movw	r24, r0
 18c:	11 24       	eor	r1, r1
 18e:	92 2f       	mov	r25, r18
 190:	9f 70       	andi	r25, 0x0F	; 15
 192:	89 2b       	or	r24, r25
 194:	88 bb       	out	0x18, r24	; 24
	LCD_DPRT |= (1<<LCD_EN);						/* EN = 1 FOR H TO L PULSE */
 196:	c1 9a       	sbi	0x18, 1	; 24
 198:	32 e0       	ldi	r19, 0x02	; 2
 19a:	3a 95       	dec	r19
 19c:	f1 f7       	brne	.-4      	; 0x19a <lcdcommand+0x3c>
 19e:	00 c0       	rjmp	.+0      	; 0x1a0 <lcdcommand+0x42>
	_delay_us(1);									/* WAIT FOR MAKE ENABLE WIDE */
	LCD_DPRT &= ~(1<<LCD_EN);						/* EN = 0 FOR H TO L PULSE */
 1a0:	c1 98       	cbi	0x18, 1	; 24
 1a2:	8f e9       	ldi	r24, 0x9F	; 159
 1a4:	9f e0       	ldi	r25, 0x0F	; 15
 1a6:	01 97       	sbiw	r24, 0x01	; 1
 1a8:	f1 f7       	brne	.-4      	; 0x1a6 <lcdcommand+0x48>
 1aa:	00 c0       	rjmp	.+0      	; 0x1ac <lcdcommand+0x4e>
 1ac:	00 00       	nop
 1ae:	08 95       	ret

000001b0 <lcddata>:
	_delay_us(2000);								/* WAIT FOR MAKE ENABLE WIDE */
}

void lcddata(unsigned char data)
{
	LCD_DPRT = (LCD_DPRT & 0x0f)|(data & 0xf0);		/* SEND DATA TO DATA PORT */
 1b0:	98 b3       	in	r25, 0x18	; 24
 1b2:	28 2f       	mov	r18, r24
 1b4:	20 7f       	andi	r18, 0xF0	; 240
 1b6:	9f 70       	andi	r25, 0x0F	; 15
 1b8:	92 2b       	or	r25, r18
 1ba:	98 bb       	out	0x18, r25	; 24
	LCD_DPRT |= (1<<LCD_RS);						/* MAKE RS = 1 FOR DATA */
 1bc:	c0 9a       	sbi	0x18, 0	; 24
	LCD_DPRT |= (1<<LCD_EN);						/* EN=0 FOR H TO L PULSE */
 1be:	c1 9a       	sbi	0x18, 1	; 24
 1c0:	32 e0       	ldi	r19, 0x02	; 2
 1c2:	3a 95       	dec	r19
 1c4:	f1 f7       	brne	.-4      	; 0x1c2 <lcddata+0x12>
 1c6:	00 c0       	rjmp	.+0      	; 0x1c8 <lcddata+0x18>
	_delay_us(1);									/* WAIT FOR MAKE ENABLE WIDE */
	LCD_DPRT &= ~(1<<LCD_EN);						/* EN = 0 FOR H TO L PULSE */
 1c8:	c1 98       	cbi	0x18, 1	; 24
 1ca:	e7 ec       	ldi	r30, 0xC7	; 199
 1cc:	f0 e0       	ldi	r31, 0x00	; 0
 1ce:	31 97       	sbiw	r30, 0x01	; 1
 1d0:	f1 f7       	brne	.-4      	; 0x1ce <lcddata+0x1e>
 1d2:	00 c0       	rjmp	.+0      	; 0x1d4 <lcddata+0x24>
 1d4:	00 00       	nop
	_delay_us(100);									/* WAIT FOR MAKE ENABLE WIDE */
	
	LCD_DPRT = (LCD_DPRT & 0x0f)|(data << 4);		/*  */
 1d6:	28 b3       	in	r18, 0x18	; 24
 1d8:	f0 e1       	ldi	r31, 0x10	; 16
 1da:	8f 9f       	mul	r24, r31
 1dc:	c0 01       	movw	r24, r0
 1de:	11 24       	eor	r1, r1
 1e0:	92 2f       	mov	r25, r18
 1e2:	9f 70       	andi	r25, 0x0F	; 15
 1e4:	89 2b       	or	r24, r25
 1e6:	88 bb       	out	0x18, r24	; 24
	LCD_DPRT |= (1<<LCD_EN);						/* EN=0 FOR H TO L PULSE*/
 1e8:	c1 9a       	sbi	0x18, 1	; 24
 1ea:	32 e0       	ldi	r19, 0x02	; 2
 1ec:	3a 95       	dec	r19
 1ee:	f1 f7       	brne	.-4      	; 0x1ec <lcddata+0x3c>
 1f0:	00 c0       	rjmp	.+0      	; 0x1f2 <lcddata+0x42>
	_delay_us(1);									/* WAIT FOR MAKE ENABLE WIDE*/
	LCD_DPRT &= ~(1<<LCD_EN);						/* EN = 0 FOR H TO L PULSE*/
 1f2:	c1 98       	cbi	0x18, 1	; 24
 1f4:	8f e9       	ldi	r24, 0x9F	; 159
 1f6:	9f e0       	ldi	r25, 0x0F	; 15
 1f8:	01 97       	sbiw	r24, 0x01	; 1
 1fa:	f1 f7       	brne	.-4      	; 0x1f8 <lcddata+0x48>
 1fc:	00 c0       	rjmp	.+0      	; 0x1fe <lcddata+0x4e>
 1fe:	00 00       	nop
 200:	08 95       	ret

00000202 <lcdinit>:
	_delay_us(2000);								/* WAIT FOR MAKE ENABLE WIDE*/
}

void lcdinit()
{
	LCD_DDDR = 0xFF;
 202:	8f ef       	ldi	r24, 0xFF	; 255
 204:	87 bb       	out	0x17, r24	; 23
	#else
		//round up by default
		__ticks_dc = (uint32_t)(ceil(fabs(__tmp)));
	#endif

	__builtin_avr_delay_cycles(__ticks_dc);
 206:	2f ef       	ldi	r18, 0xFF	; 255
 208:	81 ee       	ldi	r24, 0xE1	; 225
 20a:	94 e0       	ldi	r25, 0x04	; 4
 20c:	21 50       	subi	r18, 0x01	; 1
 20e:	80 40       	sbci	r24, 0x00	; 0
 210:	90 40       	sbci	r25, 0x00	; 0
 212:	e1 f7       	brne	.-8      	; 0x20c <lcdinit+0xa>
 214:	00 c0       	rjmp	.+0      	; 0x216 <lcdinit+0x14>
 216:	00 00       	nop
	_delay_ms(200);									/* WAIT FOR SOME TIME */
	lcdcommand(0x33);
 218:	83 e3       	ldi	r24, 0x33	; 51
 21a:	0e 94 af 00 	call	0x15e	; 0x15e <lcdcommand>
	lcdcommand(0x32);								/* SEND $32 FOR INIT OT 0X02 */
 21e:	82 e3       	ldi	r24, 0x32	; 50
 220:	0e 94 af 00 	call	0x15e	; 0x15e <lcdcommand>
	lcdcommand(0x28);								/* INIT. LCD 2 LINE, 5 X 7 MATRIX */
 224:	88 e2       	ldi	r24, 0x28	; 40
 226:	0e 94 af 00 	call	0x15e	; 0x15e <lcdcommand>
	lcdcommand(0x0C);								/* DISPLAY ON CURSOR ON */
 22a:	8c e0       	ldi	r24, 0x0C	; 12
 22c:	0e 94 af 00 	call	0x15e	; 0x15e <lcdcommand>
	lcdcommand(0x01);								/* LCD CLEAR */
 230:	81 e0       	ldi	r24, 0x01	; 1
 232:	0e 94 af 00 	call	0x15e	; 0x15e <lcdcommand>
	lcdcommand(0x82);								/* SHIFT CURSOR TO WRITE */
 236:	82 e8       	ldi	r24, 0x82	; 130
 238:	0e 94 af 00 	call	0x15e	; 0x15e <lcdcommand>
 23c:	08 95       	ret

0000023e <lcd_print>:
}
void lcd_print(char *str)
{
 23e:	0f 93       	push	r16
 240:	1f 93       	push	r17
 242:	cf 93       	push	r28
 244:	fc 01       	movw	r30, r24
	unsigned char i=0;
	while (str[i] |= 0)
 246:	80 81       	ld	r24, Z
 248:	88 23       	and	r24, r24
 24a:	59 f0       	breq	.+22     	; 0x262 <lcd_print+0x24>
 24c:	8f 01       	movw	r16, r30
 24e:	c0 e0       	ldi	r28, 0x00	; 0
	{
		lcddata(str[i]);
 250:	0e 94 d8 00 	call	0x1b0	; 0x1b0 <lcddata>
		i++;
 254:	cf 5f       	subi	r28, 0xFF	; 255
	lcdcommand(0x82);								/* SHIFT CURSOR TO WRITE */
}
void lcd_print(char *str)
{
	unsigned char i=0;
	while (str[i] |= 0)
 256:	f8 01       	movw	r30, r16
 258:	ec 0f       	add	r30, r28
 25a:	f1 1d       	adc	r31, r1
 25c:	80 81       	ld	r24, Z
 25e:	81 11       	cpse	r24, r1
 260:	f7 cf       	rjmp	.-18     	; 0x250 <lcd_print+0x12>
	{
		lcddata(str[i]);
		i++;
	}
}
 262:	cf 91       	pop	r28
 264:	1f 91       	pop	r17
 266:	0f 91       	pop	r16
 268:	08 95       	ret

0000026a <lcd_print_xy>:


void lcd_print_xy(char row, char pos, char* str)
{
 26a:	cf 93       	push	r28
 26c:	df 93       	push	r29
 26e:	ea 01       	movw	r28, r20
	if (row == 0 && pos<16)
 270:	81 11       	cpse	r24, r1
 272:	08 c0       	rjmp	.+16     	; 0x284 <lcd_print_xy+0x1a>
 274:	60 31       	cpi	r22, 0x10	; 16
 276:	78 f4       	brcc	.+30     	; 0x296 <lcd_print_xy+0x2c>
	lcdcommand((pos & 0x0F)|0x80);		/* Command of first row and required position<16 */
 278:	86 2f       	mov	r24, r22
 27a:	8f 70       	andi	r24, 0x0F	; 15
 27c:	80 68       	ori	r24, 0x80	; 128
 27e:	0e 94 af 00 	call	0x15e	; 0x15e <lcdcommand>
 282:	09 c0       	rjmp	.+18     	; 0x296 <lcd_print_xy+0x2c>
	else if (row == 1 && pos<16)
 284:	81 30       	cpi	r24, 0x01	; 1
 286:	39 f4       	brne	.+14     	; 0x296 <lcd_print_xy+0x2c>
 288:	60 31       	cpi	r22, 0x10	; 16
 28a:	28 f4       	brcc	.+10     	; 0x296 <lcd_print_xy+0x2c>
	lcdcommand((pos & 0x0F)|0xC0);		/* Command of first row and required position<16 */
 28c:	86 2f       	mov	r24, r22
 28e:	8f 70       	andi	r24, 0x0F	; 15
 290:	80 6c       	ori	r24, 0xC0	; 192
 292:	0e 94 af 00 	call	0x15e	; 0x15e <lcdcommand>
	lcd_print(str);					/* Call LCD string function */
 296:	ce 01       	movw	r24, r28
 298:	0e 94 1f 01 	call	0x23e	; 0x23e <lcd_print>
}
 29c:	df 91       	pop	r29
 29e:	cf 91       	pop	r28
 2a0:	08 95       	ret

000002a2 <RTC_Read_Clock>:
	else
	return 0;
}

void RTC_Read_Clock(char read_clock_address)
{
 2a2:	cf 93       	push	r28
 2a4:	c8 2f       	mov	r28, r24
	I2C_Start(Device_Write_address);				/* Start I2C communication with RTC */
 2a6:	80 ed       	ldi	r24, 0xD0	; 208
 2a8:	0e 94 4d 00 	call	0x9a	; 0x9a <I2C_Start>
	I2C_Write(read_clock_address);					/* Write address to read */
 2ac:	8c 2f       	mov	r24, r28
 2ae:	0e 94 8d 00 	call	0x11a	; 0x11a <I2C_Write>
	I2C_Repeated_Start(Device_Read_address);		/* Repeated start with device read address */
 2b2:	81 ed       	ldi	r24, 0xD1	; 209
 2b4:	0e 94 6a 00 	call	0xd4	; 0xd4 <I2C_Repeated_Start>

	second = I2C_Read_Ack();						/* Read second */
 2b8:	0e 94 9f 00 	call	0x13e	; 0x13e <I2C_Read_Ack>
 2bc:	90 93 b3 00 	sts	0x00B3, r25	; 0x8000b3 <second+0x1>
 2c0:	80 93 b2 00 	sts	0x00B2, r24	; 0x8000b2 <second>
	minute = I2C_Read_Ack();						/* Read minute */
 2c4:	0e 94 9f 00 	call	0x13e	; 0x13e <I2C_Read_Ack>
 2c8:	90 93 b5 00 	sts	0x00B5, r25	; 0x8000b5 <minute+0x1>
 2cc:	80 93 b4 00 	sts	0x00B4, r24	; 0x8000b4 <minute>
	hour = I2C_Read_Nack();							/* Read hour with Nack */
 2d0:	0e 94 a7 00 	call	0x14e	; 0x14e <I2C_Read_Nack>
 2d4:	90 93 b7 00 	sts	0x00B7, r25	; 0x8000b7 <hour+0x1>
 2d8:	80 93 b6 00 	sts	0x00B6, r24	; 0x8000b6 <hour>
	I2C_Stop();										/* Stop i2C communication */
 2dc:	0e 94 87 00 	call	0x10e	; 0x10e <I2C_Stop>
}
 2e0:	cf 91       	pop	r28
 2e2:	08 95       	ret

000002e4 <RTC_Read_Calendar>:

void RTC_Read_Calendar(char read_calendar_address)
{
 2e4:	cf 93       	push	r28
 2e6:	c8 2f       	mov	r28, r24
	I2C_Start(Device_Write_address);
 2e8:	80 ed       	ldi	r24, 0xD0	; 208
 2ea:	0e 94 4d 00 	call	0x9a	; 0x9a <I2C_Start>
	I2C_Write(read_calendar_address);
 2ee:	8c 2f       	mov	r24, r28
 2f0:	0e 94 8d 00 	call	0x11a	; 0x11a <I2C_Write>
	I2C_Repeated_Start(Device_Read_address);
 2f4:	81 ed       	ldi	r24, 0xD1	; 209
 2f6:	0e 94 6a 00 	call	0xd4	; 0xd4 <I2C_Repeated_Start>

	day = I2C_Read_Ack();							/* Read day */ 
 2fa:	0e 94 9f 00 	call	0x13e	; 0x13e <I2C_Read_Ack>
 2fe:	90 93 bb 00 	sts	0x00BB, r25	; 0x8000bb <day+0x1>
 302:	80 93 ba 00 	sts	0x00BA, r24	; 0x8000ba <day>
	date = I2C_Read_Ack();							/* Read date */
 306:	0e 94 9f 00 	call	0x13e	; 0x13e <I2C_Read_Ack>
 30a:	90 93 bd 00 	sts	0x00BD, r25	; 0x8000bd <date+0x1>
 30e:	80 93 bc 00 	sts	0x00BC, r24	; 0x8000bc <date>
	month = I2C_Read_Ack();							/* Read month */
 312:	0e 94 9f 00 	call	0x13e	; 0x13e <I2C_Read_Ack>
 316:	90 93 b1 00 	sts	0x00B1, r25	; 0x8000b1 <__data_end+0x1>
 31a:	80 93 b0 00 	sts	0x00B0, r24	; 0x8000b0 <__data_end>
	year = I2C_Read_Nack();							/* Read the year with Nack */
 31e:	0e 94 a7 00 	call	0x14e	; 0x14e <I2C_Read_Nack>
 322:	90 93 b9 00 	sts	0x00B9, r25	; 0x8000b9 <year+0x1>
 326:	80 93 b8 00 	sts	0x00B8, r24	; 0x8000b8 <year>
	I2C_Stop();										/* Stop i2C communication */
 32a:	0e 94 87 00 	call	0x10e	; 0x10e <I2C_Stop>
}
 32e:	cf 91       	pop	r28
 330:	08 95       	ret

00000332 <main>:

int main(void)
{
 332:	cf 93       	push	r28
 334:	df 93       	push	r29
 336:	cd b7       	in	r28, 0x3d	; 61
 338:	de b7       	in	r29, 0x3e	; 62
 33a:	a2 97       	sbiw	r28, 0x22	; 34
 33c:	0f b6       	in	r0, 0x3f	; 63
 33e:	f8 94       	cli
 340:	de bf       	out	0x3e, r29	; 62
 342:	0f be       	out	0x3f, r0	; 63
 344:	cd bf       	out	0x3d, r28	; 61
	char buffer[20];
	char* days[7]= {"Sun","Mon","Tue","Wed","Thu","Fri","Sat"};
 346:	8e e0       	ldi	r24, 0x0E	; 14
 348:	e0 e6       	ldi	r30, 0x60	; 96
 34a:	f0 e0       	ldi	r31, 0x00	; 0
 34c:	de 01       	movw	r26, r28
 34e:	55 96       	adiw	r26, 0x15	; 21
 350:	01 90       	ld	r0, Z+
 352:	0d 92       	st	X+, r0
 354:	8a 95       	dec	r24
 356:	e1 f7       	brne	.-8      	; 0x350 <main+0x1e>

	I2C_Init();										/* Initialize I2C */
 358:	0e 94 49 00 	call	0x92	; 0x92 <I2C_Init>
	lcdinit();										/* Initialize LCD16x2 */
 35c:	0e 94 01 01 	call	0x202	; 0x202 <lcdinit>
			lcd_print_xy(0,0,buffer);
		}
		
		else
		{
			sprintf(buffer, "%02x:%02x:%02x  ", (hour & 0b00011111), minute, second);
 360:	0f 2e       	mov	r0, r31
 362:	fe e6       	ldi	r31, 0x6E	; 110
 364:	cf 2e       	mov	r12, r31
 366:	f0 e0       	ldi	r31, 0x00	; 0
 368:	df 2e       	mov	r13, r31
 36a:	f0 2d       	mov	r31, r0
 36c:	8e 01       	movw	r16, r28
 36e:	0f 5f       	subi	r16, 0xFF	; 255
 370:	1f 4f       	sbci	r17, 0xFF	; 255
    {
		RTC_Read_Clock(0);							/* Read the clock with second address i.e location is 0 */
		if (hour & TimeFormat12)	
		{
			sprintf(buffer, "%02x:%02x:%02x  ", (hour & 0b00011111), minute, second);
			if(IsItPM(hour))
 372:	0f 2e       	mov	r0, r31
 374:	f6 eb       	ldi	r31, 0xB6	; 182
 376:	af 2e       	mov	r10, r31
 378:	f0 e0       	ldi	r31, 0x00	; 0
 37a:	bf 2e       	mov	r11, r31
 37c:	f0 2d       	mov	r31, r0
			strcat(buffer, "PM");
			else
			strcat(buffer, "AM");
 37e:	0f 2e       	mov	r0, r31
 380:	f1 e4       	ldi	r31, 0x41	; 65
 382:	2f 2e       	mov	r2, r31
 384:	fd e4       	ldi	r31, 0x4D	; 77
 386:	3f 2e       	mov	r3, r31
 388:	41 2c       	mov	r4, r1
 38a:	f0 2d       	mov	r31, r0
		RTC_Read_Clock(0);							/* Read the clock with second address i.e location is 0 */
		if (hour & TimeFormat12)	
		{
			sprintf(buffer, "%02x:%02x:%02x  ", (hour & 0b00011111), minute, second);
			if(IsItPM(hour))
			strcat(buffer, "PM");
 38c:	0f 2e       	mov	r0, r31
 38e:	f0 e5       	ldi	r31, 0x50	; 80
 390:	6f 2e       	mov	r6, r31
 392:	fd e4       	ldi	r31, 0x4D	; 77
 394:	7f 2e       	mov	r7, r31
 396:	81 2c       	mov	r8, r1
 398:	f0 2d       	mov	r31, r0
		{
			sprintf(buffer, "%02x:%02x:%02x  ", (hour & 0b00011111), minute, second);
			lcd_print_xy(0,0,buffer);
		}
		RTC_Read_Calendar(3);						/* Read the calender with day address i.e location is 3 */
	    sprintf(buffer, "%02x/%02x/%02x %3s ", date, month, year,days[day-1]);
 39a:	0f 2e       	mov	r0, r31
 39c:	ff e7       	ldi	r31, 0x7F	; 127
 39e:	ef 2e       	mov	r14, r31
 3a0:	f0 e0       	ldi	r31, 0x00	; 0
 3a2:	ff 2e       	mov	r15, r31
 3a4:	f0 2d       	mov	r31, r0
	I2C_Init();										/* Initialize I2C */
	lcdinit();										/* Initialize LCD16x2 */

    while(1)
    {
		RTC_Read_Clock(0);							/* Read the clock with second address i.e location is 0 */
 3a6:	80 e0       	ldi	r24, 0x00	; 0
 3a8:	0e 94 51 01 	call	0x2a2	; 0x2a2 <RTC_Read_Clock>
		if (hour & TimeFormat12)	
 3ac:	80 91 b6 00 	lds	r24, 0x00B6	; 0x8000b6 <hour>
 3b0:	90 91 b7 00 	lds	r25, 0x00B7	; 0x8000b7 <hour+0x1>
 3b4:	86 ff       	sbrs	r24, 6
 3b6:	36 c0       	rjmp	.+108    	; 0x424 <__LOCK_REGION_LENGTH__+0x24>
		{
			sprintf(buffer, "%02x:%02x:%02x  ", (hour & 0b00011111), minute, second);
 3b8:	20 91 b3 00 	lds	r18, 0x00B3	; 0x8000b3 <second+0x1>
 3bc:	2f 93       	push	r18
 3be:	20 91 b2 00 	lds	r18, 0x00B2	; 0x8000b2 <second>
 3c2:	2f 93       	push	r18
 3c4:	20 91 b5 00 	lds	r18, 0x00B5	; 0x8000b5 <minute+0x1>
 3c8:	2f 93       	push	r18
 3ca:	20 91 b4 00 	lds	r18, 0x00B4	; 0x8000b4 <minute>
 3ce:	2f 93       	push	r18
 3d0:	8f 71       	andi	r24, 0x1F	; 31
 3d2:	99 27       	eor	r25, r25
 3d4:	9f 93       	push	r25
 3d6:	8f 93       	push	r24
 3d8:	df 92       	push	r13
 3da:	cf 92       	push	r12
 3dc:	1f 93       	push	r17
 3de:	0f 93       	push	r16
 3e0:	0e 94 65 02 	call	0x4ca	; 0x4ca <sprintf>

int second,minute,hour,day,date,month,year;

bool IsItPM(char hour_)
{
	if(hour_ & (AMPM))
 3e4:	f5 01       	movw	r30, r10
 3e6:	80 81       	ld	r24, Z
    {
		RTC_Read_Clock(0);							/* Read the clock with second address i.e location is 0 */
		if (hour & TimeFormat12)	
		{
			sprintf(buffer, "%02x:%02x:%02x  ", (hour & 0b00011111), minute, second);
			if(IsItPM(hour))
 3e8:	0f b6       	in	r0, 0x3f	; 63
 3ea:	f8 94       	cli
 3ec:	de bf       	out	0x3e, r29	; 62
 3ee:	0f be       	out	0x3f, r0	; 63
 3f0:	cd bf       	out	0x3d, r28	; 61
 3f2:	85 ff       	sbrs	r24, 5
 3f4:	09 c0       	rjmp	.+18     	; 0x408 <__LOCK_REGION_LENGTH__+0x8>
			strcat(buffer, "PM");
 3f6:	f8 01       	movw	r30, r16
 3f8:	01 90       	ld	r0, Z+
 3fa:	00 20       	and	r0, r0
 3fc:	e9 f7       	brne	.-6      	; 0x3f8 <main+0xc6>
 3fe:	31 97       	sbiw	r30, 0x01	; 1
 400:	60 82       	st	Z, r6
 402:	71 82       	std	Z+1, r7	; 0x01
 404:	82 82       	std	Z+2, r8	; 0x02
 406:	08 c0       	rjmp	.+16     	; 0x418 <__LOCK_REGION_LENGTH__+0x18>
			else
			strcat(buffer, "AM");
 408:	f8 01       	movw	r30, r16
 40a:	01 90       	ld	r0, Z+
 40c:	00 20       	and	r0, r0
 40e:	e9 f7       	brne	.-6      	; 0x40a <__LOCK_REGION_LENGTH__+0xa>
 410:	31 97       	sbiw	r30, 0x01	; 1
 412:	20 82       	st	Z, r2
 414:	31 82       	std	Z+1, r3	; 0x01
 416:	42 82       	std	Z+2, r4	; 0x02
			lcd_print_xy(0,0,buffer);
 418:	a8 01       	movw	r20, r16
 41a:	60 e0       	ldi	r22, 0x00	; 0
 41c:	80 e0       	ldi	r24, 0x00	; 0
 41e:	0e 94 35 01 	call	0x26a	; 0x26a <lcd_print_xy>
 422:	20 c0       	rjmp	.+64     	; 0x464 <__stack+0x5>
		}
		
		else
		{
			sprintf(buffer, "%02x:%02x:%02x  ", (hour & 0b00011111), minute, second);
 424:	20 91 b3 00 	lds	r18, 0x00B3	; 0x8000b3 <second+0x1>
 428:	2f 93       	push	r18
 42a:	20 91 b2 00 	lds	r18, 0x00B2	; 0x8000b2 <second>
 42e:	2f 93       	push	r18
 430:	20 91 b5 00 	lds	r18, 0x00B5	; 0x8000b5 <minute+0x1>
 434:	2f 93       	push	r18
 436:	20 91 b4 00 	lds	r18, 0x00B4	; 0x8000b4 <minute>
 43a:	2f 93       	push	r18
 43c:	8f 71       	andi	r24, 0x1F	; 31
 43e:	99 27       	eor	r25, r25
 440:	9f 93       	push	r25
 442:	8f 93       	push	r24
 444:	df 92       	push	r13
 446:	cf 92       	push	r12
 448:	1f 93       	push	r17
 44a:	0f 93       	push	r16
 44c:	0e 94 65 02 	call	0x4ca	; 0x4ca <sprintf>
			lcd_print_xy(0,0,buffer);
 450:	a8 01       	movw	r20, r16
 452:	60 e0       	ldi	r22, 0x00	; 0
 454:	80 e0       	ldi	r24, 0x00	; 0
 456:	0e 94 35 01 	call	0x26a	; 0x26a <lcd_print_xy>
 45a:	0f b6       	in	r0, 0x3f	; 63
 45c:	f8 94       	cli
 45e:	de bf       	out	0x3e, r29	; 62
 460:	0f be       	out	0x3f, r0	; 63
 462:	cd bf       	out	0x3d, r28	; 61
		}
		RTC_Read_Calendar(3);						/* Read the calender with day address i.e location is 3 */
 464:	83 e0       	ldi	r24, 0x03	; 3
 466:	0e 94 72 01 	call	0x2e4	; 0x2e4 <RTC_Read_Calendar>
	    sprintf(buffer, "%02x/%02x/%02x %3s ", date, month, year,days[day-1]);
 46a:	e0 91 ba 00 	lds	r30, 0x00BA	; 0x8000ba <day>
 46e:	f0 91 bb 00 	lds	r31, 0x00BB	; 0x8000bb <day+0x1>
 472:	31 97       	sbiw	r30, 0x01	; 1
 474:	ee 0f       	add	r30, r30
 476:	ff 1f       	adc	r31, r31
 478:	e0 0f       	add	r30, r16
 47a:	f1 1f       	adc	r31, r17
 47c:	85 89       	ldd	r24, Z+21	; 0x15
 47e:	8f 93       	push	r24
 480:	84 89       	ldd	r24, Z+20	; 0x14
 482:	8f 93       	push	r24
 484:	80 91 b9 00 	lds	r24, 0x00B9	; 0x8000b9 <year+0x1>
 488:	8f 93       	push	r24
 48a:	80 91 b8 00 	lds	r24, 0x00B8	; 0x8000b8 <year>
 48e:	8f 93       	push	r24
 490:	80 91 b1 00 	lds	r24, 0x00B1	; 0x8000b1 <__data_end+0x1>
 494:	8f 93       	push	r24
 496:	80 91 b0 00 	lds	r24, 0x00B0	; 0x8000b0 <__data_end>
 49a:	8f 93       	push	r24
 49c:	80 91 bd 00 	lds	r24, 0x00BD	; 0x8000bd <date+0x1>
 4a0:	8f 93       	push	r24
 4a2:	80 91 bc 00 	lds	r24, 0x00BC	; 0x8000bc <date>
 4a6:	8f 93       	push	r24
 4a8:	ff 92       	push	r15
 4aa:	ef 92       	push	r14
 4ac:	1f 93       	push	r17
 4ae:	0f 93       	push	r16
 4b0:	0e 94 65 02 	call	0x4ca	; 0x4ca <sprintf>
		lcd_print_xy(1,0,buffer);
 4b4:	a8 01       	movw	r20, r16
 4b6:	60 e0       	ldi	r22, 0x00	; 0
 4b8:	81 e0       	ldi	r24, 0x01	; 1
 4ba:	0e 94 35 01 	call	0x26a	; 0x26a <lcd_print_xy>
    }
 4be:	0f b6       	in	r0, 0x3f	; 63
 4c0:	f8 94       	cli
 4c2:	de bf       	out	0x3e, r29	; 62
 4c4:	0f be       	out	0x3f, r0	; 63
 4c6:	cd bf       	out	0x3d, r28	; 61
 4c8:	6e cf       	rjmp	.-292    	; 0x3a6 <main+0x74>

000004ca <sprintf>:
 4ca:	ae e0       	ldi	r26, 0x0E	; 14
 4cc:	b0 e0       	ldi	r27, 0x00	; 0
 4ce:	eb e6       	ldi	r30, 0x6B	; 107
 4d0:	f2 e0       	ldi	r31, 0x02	; 2
 4d2:	0c 94 14 05 	jmp	0xa28	; 0xa28 <__prologue_saves__+0x1c>
 4d6:	0d 89       	ldd	r16, Y+21	; 0x15
 4d8:	1e 89       	ldd	r17, Y+22	; 0x16
 4da:	86 e0       	ldi	r24, 0x06	; 6
 4dc:	8c 83       	std	Y+4, r24	; 0x04
 4de:	1a 83       	std	Y+2, r17	; 0x02
 4e0:	09 83       	std	Y+1, r16	; 0x01
 4e2:	8f ef       	ldi	r24, 0xFF	; 255
 4e4:	9f e7       	ldi	r25, 0x7F	; 127
 4e6:	9e 83       	std	Y+6, r25	; 0x06
 4e8:	8d 83       	std	Y+5, r24	; 0x05
 4ea:	ae 01       	movw	r20, r28
 4ec:	47 5e       	subi	r20, 0xE7	; 231
 4ee:	5f 4f       	sbci	r21, 0xFF	; 255
 4f0:	6f 89       	ldd	r22, Y+23	; 0x17
 4f2:	78 8d       	ldd	r23, Y+24	; 0x18
 4f4:	ce 01       	movw	r24, r28
 4f6:	01 96       	adiw	r24, 0x01	; 1
 4f8:	0e 94 88 02 	call	0x510	; 0x510 <vfprintf>
 4fc:	2f 81       	ldd	r18, Y+7	; 0x07
 4fe:	38 85       	ldd	r19, Y+8	; 0x08
 500:	f8 01       	movw	r30, r16
 502:	e2 0f       	add	r30, r18
 504:	f3 1f       	adc	r31, r19
 506:	10 82       	st	Z, r1
 508:	2e 96       	adiw	r28, 0x0e	; 14
 50a:	e4 e0       	ldi	r30, 0x04	; 4
 50c:	0c 94 30 05 	jmp	0xa60	; 0xa60 <__epilogue_restores__+0x1c>

00000510 <vfprintf>:
 510:	ac e0       	ldi	r26, 0x0C	; 12
 512:	b0 e0       	ldi	r27, 0x00	; 0
 514:	ee e8       	ldi	r30, 0x8E	; 142
 516:	f2 e0       	ldi	r31, 0x02	; 2
 518:	0c 94 06 05 	jmp	0xa0c	; 0xa0c <__prologue_saves__>
 51c:	7c 01       	movw	r14, r24
 51e:	6b 01       	movw	r12, r22
 520:	8a 01       	movw	r16, r20
 522:	fc 01       	movw	r30, r24
 524:	17 82       	std	Z+7, r1	; 0x07
 526:	16 82       	std	Z+6, r1	; 0x06
 528:	83 81       	ldd	r24, Z+3	; 0x03
 52a:	81 ff       	sbrs	r24, 1
 52c:	bd c1       	rjmp	.+890    	; 0x8a8 <vfprintf+0x398>
 52e:	ce 01       	movw	r24, r28
 530:	01 96       	adiw	r24, 0x01	; 1
 532:	4c 01       	movw	r8, r24
 534:	f7 01       	movw	r30, r14
 536:	93 81       	ldd	r25, Z+3	; 0x03
 538:	f6 01       	movw	r30, r12
 53a:	93 fd       	sbrc	r25, 3
 53c:	85 91       	lpm	r24, Z+
 53e:	93 ff       	sbrs	r25, 3
 540:	81 91       	ld	r24, Z+
 542:	6f 01       	movw	r12, r30
 544:	88 23       	and	r24, r24
 546:	09 f4       	brne	.+2      	; 0x54a <vfprintf+0x3a>
 548:	ab c1       	rjmp	.+854    	; 0x8a0 <vfprintf+0x390>
 54a:	85 32       	cpi	r24, 0x25	; 37
 54c:	39 f4       	brne	.+14     	; 0x55c <vfprintf+0x4c>
 54e:	93 fd       	sbrc	r25, 3
 550:	85 91       	lpm	r24, Z+
 552:	93 ff       	sbrs	r25, 3
 554:	81 91       	ld	r24, Z+
 556:	6f 01       	movw	r12, r30
 558:	85 32       	cpi	r24, 0x25	; 37
 55a:	29 f4       	brne	.+10     	; 0x566 <vfprintf+0x56>
 55c:	b7 01       	movw	r22, r14
 55e:	90 e0       	ldi	r25, 0x00	; 0
 560:	0e 94 70 04 	call	0x8e0	; 0x8e0 <fputc>
 564:	e7 cf       	rjmp	.-50     	; 0x534 <vfprintf+0x24>
 566:	51 2c       	mov	r5, r1
 568:	31 2c       	mov	r3, r1
 56a:	20 e0       	ldi	r18, 0x00	; 0
 56c:	20 32       	cpi	r18, 0x20	; 32
 56e:	a0 f4       	brcc	.+40     	; 0x598 <vfprintf+0x88>
 570:	8b 32       	cpi	r24, 0x2B	; 43
 572:	69 f0       	breq	.+26     	; 0x58e <vfprintf+0x7e>
 574:	30 f4       	brcc	.+12     	; 0x582 <vfprintf+0x72>
 576:	80 32       	cpi	r24, 0x20	; 32
 578:	59 f0       	breq	.+22     	; 0x590 <vfprintf+0x80>
 57a:	83 32       	cpi	r24, 0x23	; 35
 57c:	69 f4       	brne	.+26     	; 0x598 <vfprintf+0x88>
 57e:	20 61       	ori	r18, 0x10	; 16
 580:	2c c0       	rjmp	.+88     	; 0x5da <vfprintf+0xca>
 582:	8d 32       	cpi	r24, 0x2D	; 45
 584:	39 f0       	breq	.+14     	; 0x594 <vfprintf+0x84>
 586:	80 33       	cpi	r24, 0x30	; 48
 588:	39 f4       	brne	.+14     	; 0x598 <vfprintf+0x88>
 58a:	21 60       	ori	r18, 0x01	; 1
 58c:	26 c0       	rjmp	.+76     	; 0x5da <vfprintf+0xca>
 58e:	22 60       	ori	r18, 0x02	; 2
 590:	24 60       	ori	r18, 0x04	; 4
 592:	23 c0       	rjmp	.+70     	; 0x5da <vfprintf+0xca>
 594:	28 60       	ori	r18, 0x08	; 8
 596:	21 c0       	rjmp	.+66     	; 0x5da <vfprintf+0xca>
 598:	27 fd       	sbrc	r18, 7
 59a:	27 c0       	rjmp	.+78     	; 0x5ea <vfprintf+0xda>
 59c:	30 ed       	ldi	r19, 0xD0	; 208
 59e:	38 0f       	add	r19, r24
 5a0:	3a 30       	cpi	r19, 0x0A	; 10
 5a2:	78 f4       	brcc	.+30     	; 0x5c2 <vfprintf+0xb2>
 5a4:	26 ff       	sbrs	r18, 6
 5a6:	06 c0       	rjmp	.+12     	; 0x5b4 <vfprintf+0xa4>
 5a8:	fa e0       	ldi	r31, 0x0A	; 10
 5aa:	5f 9e       	mul	r5, r31
 5ac:	30 0d       	add	r19, r0
 5ae:	11 24       	eor	r1, r1
 5b0:	53 2e       	mov	r5, r19
 5b2:	13 c0       	rjmp	.+38     	; 0x5da <vfprintf+0xca>
 5b4:	8a e0       	ldi	r24, 0x0A	; 10
 5b6:	38 9e       	mul	r3, r24
 5b8:	30 0d       	add	r19, r0
 5ba:	11 24       	eor	r1, r1
 5bc:	33 2e       	mov	r3, r19
 5be:	20 62       	ori	r18, 0x20	; 32
 5c0:	0c c0       	rjmp	.+24     	; 0x5da <vfprintf+0xca>
 5c2:	8e 32       	cpi	r24, 0x2E	; 46
 5c4:	21 f4       	brne	.+8      	; 0x5ce <vfprintf+0xbe>
 5c6:	26 fd       	sbrc	r18, 6
 5c8:	6b c1       	rjmp	.+726    	; 0x8a0 <vfprintf+0x390>
 5ca:	20 64       	ori	r18, 0x40	; 64
 5cc:	06 c0       	rjmp	.+12     	; 0x5da <vfprintf+0xca>
 5ce:	8c 36       	cpi	r24, 0x6C	; 108
 5d0:	11 f4       	brne	.+4      	; 0x5d6 <vfprintf+0xc6>
 5d2:	20 68       	ori	r18, 0x80	; 128
 5d4:	02 c0       	rjmp	.+4      	; 0x5da <vfprintf+0xca>
 5d6:	88 36       	cpi	r24, 0x68	; 104
 5d8:	41 f4       	brne	.+16     	; 0x5ea <vfprintf+0xda>
 5da:	f6 01       	movw	r30, r12
 5dc:	93 fd       	sbrc	r25, 3
 5de:	85 91       	lpm	r24, Z+
 5e0:	93 ff       	sbrs	r25, 3
 5e2:	81 91       	ld	r24, Z+
 5e4:	6f 01       	movw	r12, r30
 5e6:	81 11       	cpse	r24, r1
 5e8:	c1 cf       	rjmp	.-126    	; 0x56c <vfprintf+0x5c>
 5ea:	98 2f       	mov	r25, r24
 5ec:	9f 7d       	andi	r25, 0xDF	; 223
 5ee:	95 54       	subi	r25, 0x45	; 69
 5f0:	93 30       	cpi	r25, 0x03	; 3
 5f2:	28 f4       	brcc	.+10     	; 0x5fe <vfprintf+0xee>
 5f4:	0c 5f       	subi	r16, 0xFC	; 252
 5f6:	1f 4f       	sbci	r17, 0xFF	; 255
 5f8:	ff e3       	ldi	r31, 0x3F	; 63
 5fa:	f9 83       	std	Y+1, r31	; 0x01
 5fc:	0d c0       	rjmp	.+26     	; 0x618 <vfprintf+0x108>
 5fe:	83 36       	cpi	r24, 0x63	; 99
 600:	31 f0       	breq	.+12     	; 0x60e <vfprintf+0xfe>
 602:	83 37       	cpi	r24, 0x73	; 115
 604:	71 f0       	breq	.+28     	; 0x622 <vfprintf+0x112>
 606:	83 35       	cpi	r24, 0x53	; 83
 608:	09 f0       	breq	.+2      	; 0x60c <vfprintf+0xfc>
 60a:	5b c0       	rjmp	.+182    	; 0x6c2 <vfprintf+0x1b2>
 60c:	22 c0       	rjmp	.+68     	; 0x652 <vfprintf+0x142>
 60e:	f8 01       	movw	r30, r16
 610:	80 81       	ld	r24, Z
 612:	89 83       	std	Y+1, r24	; 0x01
 614:	0e 5f       	subi	r16, 0xFE	; 254
 616:	1f 4f       	sbci	r17, 0xFF	; 255
 618:	44 24       	eor	r4, r4
 61a:	43 94       	inc	r4
 61c:	51 2c       	mov	r5, r1
 61e:	54 01       	movw	r10, r8
 620:	15 c0       	rjmp	.+42     	; 0x64c <vfprintf+0x13c>
 622:	38 01       	movw	r6, r16
 624:	f2 e0       	ldi	r31, 0x02	; 2
 626:	6f 0e       	add	r6, r31
 628:	71 1c       	adc	r7, r1
 62a:	f8 01       	movw	r30, r16
 62c:	a0 80       	ld	r10, Z
 62e:	b1 80       	ldd	r11, Z+1	; 0x01
 630:	26 ff       	sbrs	r18, 6
 632:	03 c0       	rjmp	.+6      	; 0x63a <vfprintf+0x12a>
 634:	65 2d       	mov	r22, r5
 636:	70 e0       	ldi	r23, 0x00	; 0
 638:	02 c0       	rjmp	.+4      	; 0x63e <vfprintf+0x12e>
 63a:	6f ef       	ldi	r22, 0xFF	; 255
 63c:	7f ef       	ldi	r23, 0xFF	; 255
 63e:	c5 01       	movw	r24, r10
 640:	2c 87       	std	Y+12, r18	; 0x0c
 642:	0e 94 65 04 	call	0x8ca	; 0x8ca <strnlen>
 646:	2c 01       	movw	r4, r24
 648:	83 01       	movw	r16, r6
 64a:	2c 85       	ldd	r18, Y+12	; 0x0c
 64c:	2f 77       	andi	r18, 0x7F	; 127
 64e:	22 2e       	mov	r2, r18
 650:	17 c0       	rjmp	.+46     	; 0x680 <vfprintf+0x170>
 652:	38 01       	movw	r6, r16
 654:	f2 e0       	ldi	r31, 0x02	; 2
 656:	6f 0e       	add	r6, r31
 658:	71 1c       	adc	r7, r1
 65a:	f8 01       	movw	r30, r16
 65c:	a0 80       	ld	r10, Z
 65e:	b1 80       	ldd	r11, Z+1	; 0x01
 660:	26 ff       	sbrs	r18, 6
 662:	03 c0       	rjmp	.+6      	; 0x66a <vfprintf+0x15a>
 664:	65 2d       	mov	r22, r5
 666:	70 e0       	ldi	r23, 0x00	; 0
 668:	02 c0       	rjmp	.+4      	; 0x66e <vfprintf+0x15e>
 66a:	6f ef       	ldi	r22, 0xFF	; 255
 66c:	7f ef       	ldi	r23, 0xFF	; 255
 66e:	c5 01       	movw	r24, r10
 670:	2c 87       	std	Y+12, r18	; 0x0c
 672:	0e 94 5a 04 	call	0x8b4	; 0x8b4 <strnlen_P>
 676:	2c 01       	movw	r4, r24
 678:	2c 85       	ldd	r18, Y+12	; 0x0c
 67a:	20 68       	ori	r18, 0x80	; 128
 67c:	22 2e       	mov	r2, r18
 67e:	83 01       	movw	r16, r6
 680:	23 fc       	sbrc	r2, 3
 682:	1b c0       	rjmp	.+54     	; 0x6ba <vfprintf+0x1aa>
 684:	83 2d       	mov	r24, r3
 686:	90 e0       	ldi	r25, 0x00	; 0
 688:	48 16       	cp	r4, r24
 68a:	59 06       	cpc	r5, r25
 68c:	b0 f4       	brcc	.+44     	; 0x6ba <vfprintf+0x1aa>
 68e:	b7 01       	movw	r22, r14
 690:	80 e2       	ldi	r24, 0x20	; 32
 692:	90 e0       	ldi	r25, 0x00	; 0
 694:	0e 94 70 04 	call	0x8e0	; 0x8e0 <fputc>
 698:	3a 94       	dec	r3
 69a:	f4 cf       	rjmp	.-24     	; 0x684 <vfprintf+0x174>
 69c:	f5 01       	movw	r30, r10
 69e:	27 fc       	sbrc	r2, 7
 6a0:	85 91       	lpm	r24, Z+
 6a2:	27 fe       	sbrs	r2, 7
 6a4:	81 91       	ld	r24, Z+
 6a6:	5f 01       	movw	r10, r30
 6a8:	b7 01       	movw	r22, r14
 6aa:	90 e0       	ldi	r25, 0x00	; 0
 6ac:	0e 94 70 04 	call	0x8e0	; 0x8e0 <fputc>
 6b0:	31 10       	cpse	r3, r1
 6b2:	3a 94       	dec	r3
 6b4:	f1 e0       	ldi	r31, 0x01	; 1
 6b6:	4f 1a       	sub	r4, r31
 6b8:	51 08       	sbc	r5, r1
 6ba:	41 14       	cp	r4, r1
 6bc:	51 04       	cpc	r5, r1
 6be:	71 f7       	brne	.-36     	; 0x69c <vfprintf+0x18c>
 6c0:	e5 c0       	rjmp	.+458    	; 0x88c <vfprintf+0x37c>
 6c2:	84 36       	cpi	r24, 0x64	; 100
 6c4:	11 f0       	breq	.+4      	; 0x6ca <vfprintf+0x1ba>
 6c6:	89 36       	cpi	r24, 0x69	; 105
 6c8:	39 f5       	brne	.+78     	; 0x718 <vfprintf+0x208>
 6ca:	f8 01       	movw	r30, r16
 6cc:	27 ff       	sbrs	r18, 7
 6ce:	07 c0       	rjmp	.+14     	; 0x6de <vfprintf+0x1ce>
 6d0:	60 81       	ld	r22, Z
 6d2:	71 81       	ldd	r23, Z+1	; 0x01
 6d4:	82 81       	ldd	r24, Z+2	; 0x02
 6d6:	93 81       	ldd	r25, Z+3	; 0x03
 6d8:	0c 5f       	subi	r16, 0xFC	; 252
 6da:	1f 4f       	sbci	r17, 0xFF	; 255
 6dc:	08 c0       	rjmp	.+16     	; 0x6ee <vfprintf+0x1de>
 6de:	60 81       	ld	r22, Z
 6e0:	71 81       	ldd	r23, Z+1	; 0x01
 6e2:	07 2e       	mov	r0, r23
 6e4:	00 0c       	add	r0, r0
 6e6:	88 0b       	sbc	r24, r24
 6e8:	99 0b       	sbc	r25, r25
 6ea:	0e 5f       	subi	r16, 0xFE	; 254
 6ec:	1f 4f       	sbci	r17, 0xFF	; 255
 6ee:	2f 76       	andi	r18, 0x6F	; 111
 6f0:	72 2e       	mov	r7, r18
 6f2:	97 ff       	sbrs	r25, 7
 6f4:	09 c0       	rjmp	.+18     	; 0x708 <vfprintf+0x1f8>
 6f6:	90 95       	com	r25
 6f8:	80 95       	com	r24
 6fa:	70 95       	com	r23
 6fc:	61 95       	neg	r22
 6fe:	7f 4f       	sbci	r23, 0xFF	; 255
 700:	8f 4f       	sbci	r24, 0xFF	; 255
 702:	9f 4f       	sbci	r25, 0xFF	; 255
 704:	20 68       	ori	r18, 0x80	; 128
 706:	72 2e       	mov	r7, r18
 708:	2a e0       	ldi	r18, 0x0A	; 10
 70a:	30 e0       	ldi	r19, 0x00	; 0
 70c:	a4 01       	movw	r20, r8
 70e:	0e 94 a8 04 	call	0x950	; 0x950 <__ultoa_invert>
 712:	a8 2e       	mov	r10, r24
 714:	a8 18       	sub	r10, r8
 716:	44 c0       	rjmp	.+136    	; 0x7a0 <vfprintf+0x290>
 718:	85 37       	cpi	r24, 0x75	; 117
 71a:	29 f4       	brne	.+10     	; 0x726 <vfprintf+0x216>
 71c:	2f 7e       	andi	r18, 0xEF	; 239
 71e:	b2 2e       	mov	r11, r18
 720:	2a e0       	ldi	r18, 0x0A	; 10
 722:	30 e0       	ldi	r19, 0x00	; 0
 724:	25 c0       	rjmp	.+74     	; 0x770 <vfprintf+0x260>
 726:	f2 2f       	mov	r31, r18
 728:	f9 7f       	andi	r31, 0xF9	; 249
 72a:	bf 2e       	mov	r11, r31
 72c:	8f 36       	cpi	r24, 0x6F	; 111
 72e:	c1 f0       	breq	.+48     	; 0x760 <vfprintf+0x250>
 730:	18 f4       	brcc	.+6      	; 0x738 <vfprintf+0x228>
 732:	88 35       	cpi	r24, 0x58	; 88
 734:	79 f0       	breq	.+30     	; 0x754 <vfprintf+0x244>
 736:	b4 c0       	rjmp	.+360    	; 0x8a0 <vfprintf+0x390>
 738:	80 37       	cpi	r24, 0x70	; 112
 73a:	19 f0       	breq	.+6      	; 0x742 <vfprintf+0x232>
 73c:	88 37       	cpi	r24, 0x78	; 120
 73e:	21 f0       	breq	.+8      	; 0x748 <vfprintf+0x238>
 740:	af c0       	rjmp	.+350    	; 0x8a0 <vfprintf+0x390>
 742:	2f 2f       	mov	r18, r31
 744:	20 61       	ori	r18, 0x10	; 16
 746:	b2 2e       	mov	r11, r18
 748:	b4 fe       	sbrs	r11, 4
 74a:	0d c0       	rjmp	.+26     	; 0x766 <vfprintf+0x256>
 74c:	8b 2d       	mov	r24, r11
 74e:	84 60       	ori	r24, 0x04	; 4
 750:	b8 2e       	mov	r11, r24
 752:	09 c0       	rjmp	.+18     	; 0x766 <vfprintf+0x256>
 754:	24 ff       	sbrs	r18, 4
 756:	0a c0       	rjmp	.+20     	; 0x76c <vfprintf+0x25c>
 758:	9f 2f       	mov	r25, r31
 75a:	96 60       	ori	r25, 0x06	; 6
 75c:	b9 2e       	mov	r11, r25
 75e:	06 c0       	rjmp	.+12     	; 0x76c <vfprintf+0x25c>
 760:	28 e0       	ldi	r18, 0x08	; 8
 762:	30 e0       	ldi	r19, 0x00	; 0
 764:	05 c0       	rjmp	.+10     	; 0x770 <vfprintf+0x260>
 766:	20 e1       	ldi	r18, 0x10	; 16
 768:	30 e0       	ldi	r19, 0x00	; 0
 76a:	02 c0       	rjmp	.+4      	; 0x770 <vfprintf+0x260>
 76c:	20 e1       	ldi	r18, 0x10	; 16
 76e:	32 e0       	ldi	r19, 0x02	; 2
 770:	f8 01       	movw	r30, r16
 772:	b7 fe       	sbrs	r11, 7
 774:	07 c0       	rjmp	.+14     	; 0x784 <vfprintf+0x274>
 776:	60 81       	ld	r22, Z
 778:	71 81       	ldd	r23, Z+1	; 0x01
 77a:	82 81       	ldd	r24, Z+2	; 0x02
 77c:	93 81       	ldd	r25, Z+3	; 0x03
 77e:	0c 5f       	subi	r16, 0xFC	; 252
 780:	1f 4f       	sbci	r17, 0xFF	; 255
 782:	06 c0       	rjmp	.+12     	; 0x790 <vfprintf+0x280>
 784:	60 81       	ld	r22, Z
 786:	71 81       	ldd	r23, Z+1	; 0x01
 788:	80 e0       	ldi	r24, 0x00	; 0
 78a:	90 e0       	ldi	r25, 0x00	; 0
 78c:	0e 5f       	subi	r16, 0xFE	; 254
 78e:	1f 4f       	sbci	r17, 0xFF	; 255
 790:	a4 01       	movw	r20, r8
 792:	0e 94 a8 04 	call	0x950	; 0x950 <__ultoa_invert>
 796:	a8 2e       	mov	r10, r24
 798:	a8 18       	sub	r10, r8
 79a:	fb 2d       	mov	r31, r11
 79c:	ff 77       	andi	r31, 0x7F	; 127
 79e:	7f 2e       	mov	r7, r31
 7a0:	76 fe       	sbrs	r7, 6
 7a2:	0b c0       	rjmp	.+22     	; 0x7ba <vfprintf+0x2aa>
 7a4:	37 2d       	mov	r19, r7
 7a6:	3e 7f       	andi	r19, 0xFE	; 254
 7a8:	a5 14       	cp	r10, r5
 7aa:	50 f4       	brcc	.+20     	; 0x7c0 <vfprintf+0x2b0>
 7ac:	74 fe       	sbrs	r7, 4
 7ae:	0a c0       	rjmp	.+20     	; 0x7c4 <vfprintf+0x2b4>
 7b0:	72 fc       	sbrc	r7, 2
 7b2:	08 c0       	rjmp	.+16     	; 0x7c4 <vfprintf+0x2b4>
 7b4:	37 2d       	mov	r19, r7
 7b6:	3e 7e       	andi	r19, 0xEE	; 238
 7b8:	05 c0       	rjmp	.+10     	; 0x7c4 <vfprintf+0x2b4>
 7ba:	ba 2c       	mov	r11, r10
 7bc:	37 2d       	mov	r19, r7
 7be:	03 c0       	rjmp	.+6      	; 0x7c6 <vfprintf+0x2b6>
 7c0:	ba 2c       	mov	r11, r10
 7c2:	01 c0       	rjmp	.+2      	; 0x7c6 <vfprintf+0x2b6>
 7c4:	b5 2c       	mov	r11, r5
 7c6:	34 ff       	sbrs	r19, 4
 7c8:	0d c0       	rjmp	.+26     	; 0x7e4 <vfprintf+0x2d4>
 7ca:	fe 01       	movw	r30, r28
 7cc:	ea 0d       	add	r30, r10
 7ce:	f1 1d       	adc	r31, r1
 7d0:	80 81       	ld	r24, Z
 7d2:	80 33       	cpi	r24, 0x30	; 48
 7d4:	11 f4       	brne	.+4      	; 0x7da <vfprintf+0x2ca>
 7d6:	39 7e       	andi	r19, 0xE9	; 233
 7d8:	09 c0       	rjmp	.+18     	; 0x7ec <vfprintf+0x2dc>
 7da:	32 ff       	sbrs	r19, 2
 7dc:	06 c0       	rjmp	.+12     	; 0x7ea <vfprintf+0x2da>
 7de:	b3 94       	inc	r11
 7e0:	b3 94       	inc	r11
 7e2:	04 c0       	rjmp	.+8      	; 0x7ec <vfprintf+0x2dc>
 7e4:	83 2f       	mov	r24, r19
 7e6:	86 78       	andi	r24, 0x86	; 134
 7e8:	09 f0       	breq	.+2      	; 0x7ec <vfprintf+0x2dc>
 7ea:	b3 94       	inc	r11
 7ec:	33 fd       	sbrc	r19, 3
 7ee:	13 c0       	rjmp	.+38     	; 0x816 <vfprintf+0x306>
 7f0:	30 ff       	sbrs	r19, 0
 7f2:	06 c0       	rjmp	.+12     	; 0x800 <vfprintf+0x2f0>
 7f4:	5a 2c       	mov	r5, r10
 7f6:	b3 14       	cp	r11, r3
 7f8:	18 f4       	brcc	.+6      	; 0x800 <vfprintf+0x2f0>
 7fa:	53 0c       	add	r5, r3
 7fc:	5b 18       	sub	r5, r11
 7fe:	b3 2c       	mov	r11, r3
 800:	b3 14       	cp	r11, r3
 802:	68 f4       	brcc	.+26     	; 0x81e <vfprintf+0x30e>
 804:	b7 01       	movw	r22, r14
 806:	80 e2       	ldi	r24, 0x20	; 32
 808:	90 e0       	ldi	r25, 0x00	; 0
 80a:	3c 87       	std	Y+12, r19	; 0x0c
 80c:	0e 94 70 04 	call	0x8e0	; 0x8e0 <fputc>
 810:	b3 94       	inc	r11
 812:	3c 85       	ldd	r19, Y+12	; 0x0c
 814:	f5 cf       	rjmp	.-22     	; 0x800 <vfprintf+0x2f0>
 816:	b3 14       	cp	r11, r3
 818:	10 f4       	brcc	.+4      	; 0x81e <vfprintf+0x30e>
 81a:	3b 18       	sub	r3, r11
 81c:	01 c0       	rjmp	.+2      	; 0x820 <vfprintf+0x310>
 81e:	31 2c       	mov	r3, r1
 820:	34 ff       	sbrs	r19, 4
 822:	12 c0       	rjmp	.+36     	; 0x848 <vfprintf+0x338>
 824:	b7 01       	movw	r22, r14
 826:	80 e3       	ldi	r24, 0x30	; 48
 828:	90 e0       	ldi	r25, 0x00	; 0
 82a:	3c 87       	std	Y+12, r19	; 0x0c
 82c:	0e 94 70 04 	call	0x8e0	; 0x8e0 <fputc>
 830:	3c 85       	ldd	r19, Y+12	; 0x0c
 832:	32 ff       	sbrs	r19, 2
 834:	17 c0       	rjmp	.+46     	; 0x864 <vfprintf+0x354>
 836:	31 fd       	sbrc	r19, 1
 838:	03 c0       	rjmp	.+6      	; 0x840 <vfprintf+0x330>
 83a:	88 e7       	ldi	r24, 0x78	; 120
 83c:	90 e0       	ldi	r25, 0x00	; 0
 83e:	02 c0       	rjmp	.+4      	; 0x844 <vfprintf+0x334>
 840:	88 e5       	ldi	r24, 0x58	; 88
 842:	90 e0       	ldi	r25, 0x00	; 0
 844:	b7 01       	movw	r22, r14
 846:	0c c0       	rjmp	.+24     	; 0x860 <vfprintf+0x350>
 848:	83 2f       	mov	r24, r19
 84a:	86 78       	andi	r24, 0x86	; 134
 84c:	59 f0       	breq	.+22     	; 0x864 <vfprintf+0x354>
 84e:	31 ff       	sbrs	r19, 1
 850:	02 c0       	rjmp	.+4      	; 0x856 <vfprintf+0x346>
 852:	8b e2       	ldi	r24, 0x2B	; 43
 854:	01 c0       	rjmp	.+2      	; 0x858 <vfprintf+0x348>
 856:	80 e2       	ldi	r24, 0x20	; 32
 858:	37 fd       	sbrc	r19, 7
 85a:	8d e2       	ldi	r24, 0x2D	; 45
 85c:	b7 01       	movw	r22, r14
 85e:	90 e0       	ldi	r25, 0x00	; 0
 860:	0e 94 70 04 	call	0x8e0	; 0x8e0 <fputc>
 864:	a5 14       	cp	r10, r5
 866:	38 f4       	brcc	.+14     	; 0x876 <vfprintf+0x366>
 868:	b7 01       	movw	r22, r14
 86a:	80 e3       	ldi	r24, 0x30	; 48
 86c:	90 e0       	ldi	r25, 0x00	; 0
 86e:	0e 94 70 04 	call	0x8e0	; 0x8e0 <fputc>
 872:	5a 94       	dec	r5
 874:	f7 cf       	rjmp	.-18     	; 0x864 <vfprintf+0x354>
 876:	aa 94       	dec	r10
 878:	f4 01       	movw	r30, r8
 87a:	ea 0d       	add	r30, r10
 87c:	f1 1d       	adc	r31, r1
 87e:	80 81       	ld	r24, Z
 880:	b7 01       	movw	r22, r14
 882:	90 e0       	ldi	r25, 0x00	; 0
 884:	0e 94 70 04 	call	0x8e0	; 0x8e0 <fputc>
 888:	a1 10       	cpse	r10, r1
 88a:	f5 cf       	rjmp	.-22     	; 0x876 <vfprintf+0x366>
 88c:	33 20       	and	r3, r3
 88e:	09 f4       	brne	.+2      	; 0x892 <vfprintf+0x382>
 890:	51 ce       	rjmp	.-862    	; 0x534 <vfprintf+0x24>
 892:	b7 01       	movw	r22, r14
 894:	80 e2       	ldi	r24, 0x20	; 32
 896:	90 e0       	ldi	r25, 0x00	; 0
 898:	0e 94 70 04 	call	0x8e0	; 0x8e0 <fputc>
 89c:	3a 94       	dec	r3
 89e:	f6 cf       	rjmp	.-20     	; 0x88c <vfprintf+0x37c>
 8a0:	f7 01       	movw	r30, r14
 8a2:	86 81       	ldd	r24, Z+6	; 0x06
 8a4:	97 81       	ldd	r25, Z+7	; 0x07
 8a6:	02 c0       	rjmp	.+4      	; 0x8ac <vfprintf+0x39c>
 8a8:	8f ef       	ldi	r24, 0xFF	; 255
 8aa:	9f ef       	ldi	r25, 0xFF	; 255
 8ac:	2c 96       	adiw	r28, 0x0c	; 12
 8ae:	e2 e1       	ldi	r30, 0x12	; 18
 8b0:	0c 94 22 05 	jmp	0xa44	; 0xa44 <__epilogue_restores__>

000008b4 <strnlen_P>:
 8b4:	fc 01       	movw	r30, r24
 8b6:	05 90       	lpm	r0, Z+
 8b8:	61 50       	subi	r22, 0x01	; 1
 8ba:	70 40       	sbci	r23, 0x00	; 0
 8bc:	01 10       	cpse	r0, r1
 8be:	d8 f7       	brcc	.-10     	; 0x8b6 <strnlen_P+0x2>
 8c0:	80 95       	com	r24
 8c2:	90 95       	com	r25
 8c4:	8e 0f       	add	r24, r30
 8c6:	9f 1f       	adc	r25, r31
 8c8:	08 95       	ret

000008ca <strnlen>:
 8ca:	fc 01       	movw	r30, r24
 8cc:	61 50       	subi	r22, 0x01	; 1
 8ce:	70 40       	sbci	r23, 0x00	; 0
 8d0:	01 90       	ld	r0, Z+
 8d2:	01 10       	cpse	r0, r1
 8d4:	d8 f7       	brcc	.-10     	; 0x8cc <strnlen+0x2>
 8d6:	80 95       	com	r24
 8d8:	90 95       	com	r25
 8da:	8e 0f       	add	r24, r30
 8dc:	9f 1f       	adc	r25, r31
 8de:	08 95       	ret

000008e0 <fputc>:
 8e0:	0f 93       	push	r16
 8e2:	1f 93       	push	r17
 8e4:	cf 93       	push	r28
 8e6:	df 93       	push	r29
 8e8:	fb 01       	movw	r30, r22
 8ea:	23 81       	ldd	r18, Z+3	; 0x03
 8ec:	21 fd       	sbrc	r18, 1
 8ee:	03 c0       	rjmp	.+6      	; 0x8f6 <fputc+0x16>
 8f0:	8f ef       	ldi	r24, 0xFF	; 255
 8f2:	9f ef       	ldi	r25, 0xFF	; 255
 8f4:	28 c0       	rjmp	.+80     	; 0x946 <fputc+0x66>
 8f6:	22 ff       	sbrs	r18, 2
 8f8:	16 c0       	rjmp	.+44     	; 0x926 <fputc+0x46>
 8fa:	46 81       	ldd	r20, Z+6	; 0x06
 8fc:	57 81       	ldd	r21, Z+7	; 0x07
 8fe:	24 81       	ldd	r18, Z+4	; 0x04
 900:	35 81       	ldd	r19, Z+5	; 0x05
 902:	42 17       	cp	r20, r18
 904:	53 07       	cpc	r21, r19
 906:	44 f4       	brge	.+16     	; 0x918 <fputc+0x38>
 908:	a0 81       	ld	r26, Z
 90a:	b1 81       	ldd	r27, Z+1	; 0x01
 90c:	9d 01       	movw	r18, r26
 90e:	2f 5f       	subi	r18, 0xFF	; 255
 910:	3f 4f       	sbci	r19, 0xFF	; 255
 912:	31 83       	std	Z+1, r19	; 0x01
 914:	20 83       	st	Z, r18
 916:	8c 93       	st	X, r24
 918:	26 81       	ldd	r18, Z+6	; 0x06
 91a:	37 81       	ldd	r19, Z+7	; 0x07
 91c:	2f 5f       	subi	r18, 0xFF	; 255
 91e:	3f 4f       	sbci	r19, 0xFF	; 255
 920:	37 83       	std	Z+7, r19	; 0x07
 922:	26 83       	std	Z+6, r18	; 0x06
 924:	10 c0       	rjmp	.+32     	; 0x946 <fputc+0x66>
 926:	eb 01       	movw	r28, r22
 928:	09 2f       	mov	r16, r25
 92a:	18 2f       	mov	r17, r24
 92c:	00 84       	ldd	r0, Z+8	; 0x08
 92e:	f1 85       	ldd	r31, Z+9	; 0x09
 930:	e0 2d       	mov	r30, r0
 932:	09 95       	icall
 934:	89 2b       	or	r24, r25
 936:	e1 f6       	brne	.-72     	; 0x8f0 <fputc+0x10>
 938:	8e 81       	ldd	r24, Y+6	; 0x06
 93a:	9f 81       	ldd	r25, Y+7	; 0x07
 93c:	01 96       	adiw	r24, 0x01	; 1
 93e:	9f 83       	std	Y+7, r25	; 0x07
 940:	8e 83       	std	Y+6, r24	; 0x06
 942:	81 2f       	mov	r24, r17
 944:	90 2f       	mov	r25, r16
 946:	df 91       	pop	r29
 948:	cf 91       	pop	r28
 94a:	1f 91       	pop	r17
 94c:	0f 91       	pop	r16
 94e:	08 95       	ret

00000950 <__ultoa_invert>:
 950:	fa 01       	movw	r30, r20
 952:	aa 27       	eor	r26, r26
 954:	28 30       	cpi	r18, 0x08	; 8
 956:	51 f1       	breq	.+84     	; 0x9ac <__ultoa_invert+0x5c>
 958:	20 31       	cpi	r18, 0x10	; 16
 95a:	81 f1       	breq	.+96     	; 0x9bc <__ultoa_invert+0x6c>
 95c:	e8 94       	clt
 95e:	6f 93       	push	r22
 960:	6e 7f       	andi	r22, 0xFE	; 254
 962:	6e 5f       	subi	r22, 0xFE	; 254
 964:	7f 4f       	sbci	r23, 0xFF	; 255
 966:	8f 4f       	sbci	r24, 0xFF	; 255
 968:	9f 4f       	sbci	r25, 0xFF	; 255
 96a:	af 4f       	sbci	r26, 0xFF	; 255
 96c:	b1 e0       	ldi	r27, 0x01	; 1
 96e:	3e d0       	rcall	.+124    	; 0x9ec <__ultoa_invert+0x9c>
 970:	b4 e0       	ldi	r27, 0x04	; 4
 972:	3c d0       	rcall	.+120    	; 0x9ec <__ultoa_invert+0x9c>
 974:	67 0f       	add	r22, r23
 976:	78 1f       	adc	r23, r24
 978:	89 1f       	adc	r24, r25
 97a:	9a 1f       	adc	r25, r26
 97c:	a1 1d       	adc	r26, r1
 97e:	68 0f       	add	r22, r24
 980:	79 1f       	adc	r23, r25
 982:	8a 1f       	adc	r24, r26
 984:	91 1d       	adc	r25, r1
 986:	a1 1d       	adc	r26, r1
 988:	6a 0f       	add	r22, r26
 98a:	71 1d       	adc	r23, r1
 98c:	81 1d       	adc	r24, r1
 98e:	91 1d       	adc	r25, r1
 990:	a1 1d       	adc	r26, r1
 992:	20 d0       	rcall	.+64     	; 0x9d4 <__ultoa_invert+0x84>
 994:	09 f4       	brne	.+2      	; 0x998 <__ultoa_invert+0x48>
 996:	68 94       	set
 998:	3f 91       	pop	r19
 99a:	2a e0       	ldi	r18, 0x0A	; 10
 99c:	26 9f       	mul	r18, r22
 99e:	11 24       	eor	r1, r1
 9a0:	30 19       	sub	r19, r0
 9a2:	30 5d       	subi	r19, 0xD0	; 208
 9a4:	31 93       	st	Z+, r19
 9a6:	de f6       	brtc	.-74     	; 0x95e <__ultoa_invert+0xe>
 9a8:	cf 01       	movw	r24, r30
 9aa:	08 95       	ret
 9ac:	46 2f       	mov	r20, r22
 9ae:	47 70       	andi	r20, 0x07	; 7
 9b0:	40 5d       	subi	r20, 0xD0	; 208
 9b2:	41 93       	st	Z+, r20
 9b4:	b3 e0       	ldi	r27, 0x03	; 3
 9b6:	0f d0       	rcall	.+30     	; 0x9d6 <__ultoa_invert+0x86>
 9b8:	c9 f7       	brne	.-14     	; 0x9ac <__ultoa_invert+0x5c>
 9ba:	f6 cf       	rjmp	.-20     	; 0x9a8 <__ultoa_invert+0x58>
 9bc:	46 2f       	mov	r20, r22
 9be:	4f 70       	andi	r20, 0x0F	; 15
 9c0:	40 5d       	subi	r20, 0xD0	; 208
 9c2:	4a 33       	cpi	r20, 0x3A	; 58
 9c4:	18 f0       	brcs	.+6      	; 0x9cc <__ultoa_invert+0x7c>
 9c6:	49 5d       	subi	r20, 0xD9	; 217
 9c8:	31 fd       	sbrc	r19, 1
 9ca:	40 52       	subi	r20, 0x20	; 32
 9cc:	41 93       	st	Z+, r20
 9ce:	02 d0       	rcall	.+4      	; 0x9d4 <__ultoa_invert+0x84>
 9d0:	a9 f7       	brne	.-22     	; 0x9bc <__ultoa_invert+0x6c>
 9d2:	ea cf       	rjmp	.-44     	; 0x9a8 <__ultoa_invert+0x58>
 9d4:	b4 e0       	ldi	r27, 0x04	; 4
 9d6:	a6 95       	lsr	r26
 9d8:	97 95       	ror	r25
 9da:	87 95       	ror	r24
 9dc:	77 95       	ror	r23
 9de:	67 95       	ror	r22
 9e0:	ba 95       	dec	r27
 9e2:	c9 f7       	brne	.-14     	; 0x9d6 <__ultoa_invert+0x86>
 9e4:	00 97       	sbiw	r24, 0x00	; 0
 9e6:	61 05       	cpc	r22, r1
 9e8:	71 05       	cpc	r23, r1
 9ea:	08 95       	ret
 9ec:	9b 01       	movw	r18, r22
 9ee:	ac 01       	movw	r20, r24
 9f0:	0a 2e       	mov	r0, r26
 9f2:	06 94       	lsr	r0
 9f4:	57 95       	ror	r21
 9f6:	47 95       	ror	r20
 9f8:	37 95       	ror	r19
 9fa:	27 95       	ror	r18
 9fc:	ba 95       	dec	r27
 9fe:	c9 f7       	brne	.-14     	; 0x9f2 <__ultoa_invert+0xa2>
 a00:	62 0f       	add	r22, r18
 a02:	73 1f       	adc	r23, r19
 a04:	84 1f       	adc	r24, r20
 a06:	95 1f       	adc	r25, r21
 a08:	a0 1d       	adc	r26, r0
 a0a:	08 95       	ret

00000a0c <__prologue_saves__>:
 a0c:	2f 92       	push	r2
 a0e:	3f 92       	push	r3
 a10:	4f 92       	push	r4
 a12:	5f 92       	push	r5
 a14:	6f 92       	push	r6
 a16:	7f 92       	push	r7
 a18:	8f 92       	push	r8
 a1a:	9f 92       	push	r9
 a1c:	af 92       	push	r10
 a1e:	bf 92       	push	r11
 a20:	cf 92       	push	r12
 a22:	df 92       	push	r13
 a24:	ef 92       	push	r14
 a26:	ff 92       	push	r15
 a28:	0f 93       	push	r16
 a2a:	1f 93       	push	r17
 a2c:	cf 93       	push	r28
 a2e:	df 93       	push	r29
 a30:	cd b7       	in	r28, 0x3d	; 61
 a32:	de b7       	in	r29, 0x3e	; 62
 a34:	ca 1b       	sub	r28, r26
 a36:	db 0b       	sbc	r29, r27
 a38:	0f b6       	in	r0, 0x3f	; 63
 a3a:	f8 94       	cli
 a3c:	de bf       	out	0x3e, r29	; 62
 a3e:	0f be       	out	0x3f, r0	; 63
 a40:	cd bf       	out	0x3d, r28	; 61
 a42:	09 94       	ijmp

00000a44 <__epilogue_restores__>:
 a44:	2a 88       	ldd	r2, Y+18	; 0x12
 a46:	39 88       	ldd	r3, Y+17	; 0x11
 a48:	48 88       	ldd	r4, Y+16	; 0x10
 a4a:	5f 84       	ldd	r5, Y+15	; 0x0f
 a4c:	6e 84       	ldd	r6, Y+14	; 0x0e
 a4e:	7d 84       	ldd	r7, Y+13	; 0x0d
 a50:	8c 84       	ldd	r8, Y+12	; 0x0c
 a52:	9b 84       	ldd	r9, Y+11	; 0x0b
 a54:	aa 84       	ldd	r10, Y+10	; 0x0a
 a56:	b9 84       	ldd	r11, Y+9	; 0x09
 a58:	c8 84       	ldd	r12, Y+8	; 0x08
 a5a:	df 80       	ldd	r13, Y+7	; 0x07
 a5c:	ee 80       	ldd	r14, Y+6	; 0x06
 a5e:	fd 80       	ldd	r15, Y+5	; 0x05
 a60:	0c 81       	ldd	r16, Y+4	; 0x04
 a62:	1b 81       	ldd	r17, Y+3	; 0x03
 a64:	aa 81       	ldd	r26, Y+2	; 0x02
 a66:	b9 81       	ldd	r27, Y+1	; 0x01
 a68:	ce 0f       	add	r28, r30
 a6a:	d1 1d       	adc	r29, r1
 a6c:	0f b6       	in	r0, 0x3f	; 63
 a6e:	f8 94       	cli
 a70:	de bf       	out	0x3e, r29	; 62
 a72:	0f be       	out	0x3f, r0	; 63
 a74:	cd bf       	out	0x3d, r28	; 61
 a76:	ed 01       	movw	r28, r26
 a78:	08 95       	ret

00000a7a <_exit>:
 a7a:	f8 94       	cli

00000a7c <__stop_program>:
 a7c:	ff cf       	rjmp	.-2      	; 0xa7c <__stop_program>
